; ModuleID = 'source-C-CXX/27/1866.c'
source_filename = "source-C-CXX/27/1866.c"
target datalayout = "e-m:e-p270:32:32-p271:32:32-p272:64:64-i64:64-f80:128-n8:16:32:64-S128"
target triple = "x86_64-pc-linux-gnu"

@.str = private unnamed_addr constant [3 x i8] c"%d\00", align 1
@.str.1 = private unnamed_addr constant [4 x i8] c",%d\00", align 1

; Function Attrs: nounwind sspstrong uwtable
define dso_local i32 @main() local_unnamed_addr #0 {
  %1 = alloca [2050 x i8], align 16
  %2 = getelementptr inbounds [2050 x i8], [2050 x i8]* %1, i64 0, i64 0
  call void @llvm.lifetime.start.p0i8(i64 2050, i8* nonnull %2) #5
  %3 = call i32 (i8*, ...) bitcast (i32 (...)* @gets to i32 (i8*, ...)*)(i8* nonnull %2) #5
  %4 = call i64 @strlen(i8* noundef nonnull %2) #6
  %5 = trunc i64 %4 to i32
  %6 = shl i64 %4, 32
  %7 = ashr exact i64 %6, 32
  %8 = getelementptr inbounds [2050 x i8], [2050 x i8]* %1, i64 0, i64 %7
  store i8 32, i8* %8, align 1, !tbaa !5
  %9 = icmp slt i32 %5, 0
  br i1 %9, label %40, label %10

10:                                               ; preds = %0
  %11 = add i64 %4, 1
  %12 = and i64 %11, 4294967295
  br label %13

13:                                               ; preds = %10, %35
  %14 = phi i64 [ 0, %10 ], [ %38, %35 ]
  %15 = phi i32 [ 0, %10 ], [ %37, %35 ]
  %16 = phi i32 [ 0, %10 ], [ %36, %35 ]
  %17 = getelementptr inbounds [2050 x i8], [2050 x i8]* %1, i64 0, i64 %14
  %18 = load i8, i8* %17, align 1, !tbaa !5
  %19 = icmp eq i8 %18, 32
  br i1 %19, label %20, label %31

20:                                               ; preds = %13
  %21 = add nsw i64 %14, -1
  %22 = getelementptr inbounds [2050 x i8], [2050 x i8]* %1, i64 0, i64 %21
  %23 = load i8, i8* %22, align 1, !tbaa !5
  %24 = icmp eq i8 %23, 32
  br i1 %24, label %31, label %25

25:                                               ; preds = %20
  %26 = icmp eq i32 %15, 0
  br i1 %26, label %27, label %29

27:                                               ; preds = %25
  %28 = call i32 (i8*, ...) @printf(i8* nonnull dereferenceable(1) getelementptr inbounds ([3 x i8], [3 x i8]* @.str, i64 0, i64 0), i32 %16)
  br label %35

29:                                               ; preds = %25
  %30 = call i32 (i8*, ...) @printf(i8* nonnull dereferenceable(1) getelementptr inbounds ([4 x i8], [4 x i8]* @.str.1, i64 0, i64 0), i32 %16)
  br label %35

31:                                               ; preds = %20, %13
  %32 = xor i1 %19, true
  %33 = zext i1 %32 to i32
  %34 = add nsw i32 %16, %33
  br label %35

35:                                               ; preds = %31, %27, %29
  %36 = phi i32 [ 0, %29 ], [ 0, %27 ], [ %34, %31 ]
  %37 = phi i32 [ 1, %29 ], [ 1, %27 ], [ %15, %31 ]
  %38 = add nuw nsw i64 %14, 1
  %39 = icmp eq i64 %38, %12
  br i1 %39, label %40, label %13, !llvm.loop !8

40:                                               ; preds = %35, %0
  call void @llvm.lifetime.end.p0i8(i64 2050, i8* nonnull %2) #5
  ret i32 0
}

; Function Attrs: argmemonly mustprogress nofree nosync nounwind willreturn
declare void @llvm.lifetime.start.p0i8(i64 immarg, i8* nocapture) #1

declare i32 @gets(...) local_unnamed_addr #2

; Function Attrs: argmemonly mustprogress nofree nounwind readonly willreturn
declare i64 @strlen(i8* nocapture) local_unnamed_addr #3

; Function Attrs: nofree nounwind
declare noundef i32 @printf(i8* nocapture noundef readonly, ...) local_unnamed_addr #4

; Function Attrs: argmemonly mustprogress nofree nosync nounwind willreturn
declare void @llvm.lifetime.end.p0i8(i64 immarg, i8* nocapture) #1


!llvm.module.flags = !{!0, !1, !2, !3}
!llvm.ident = !{!4}

!0 = !{i32 1, !"wchar_size", i32 4}
!1 = !{i32 7, !"PIC Level", i32 2}
!2 = !{i32 7, !"PIE Level", i32 2}
!3 = !{i32 7, !"uwtable", i32 1}
!4 = !{!"clang version 13.0.0"}
!5 = !{!6, !6, i64 0}
!6 = !{!"omnipotent char", !7, i64 0}
!7 = !{!"Simple C/C++ TBAA"}
!8 = distinct !{!8, !9}
!9 = !{!"llvm.loop.mustprogress"}
